target datalayout = "e-m:e-p270:32:32-p271:32:32-p272:64:64-i64:64-i128:128-f80:128-n8:16:32:64-S128"
target triple = "x86_64-pc-linux-gnu"

%class.LogTagSet = type { ptr, i64, [5 x i32], [4 x i8], %class.LogOutputList, %class.LogDecorators, ptr }
%class.LogOutputList = type <{ [6 x ptr], i32, [4 x i8] }>
%class.LogDecorators = type { i32 }
%"class.LogStreamImplBase::LineBuffer" = type { [64 x i8], ptr, i64, i64 }

@.str = private unnamed_addr constant [38 x i8] c"Suspiciously long log line: \22%.100s%s\00", align 1
@.str.4 = private unnamed_addr constant [4 x i8] c"...\00", align 1
@.str.5 = private unnamed_addr constant [1 x i8] zeroinitializer, align 1
@_ZN16LogTagSetMappingILN6LogTag4typeE76ELS1_0ELS1_0ELS1_0ELS1_0ELS1_0EE7_tagsetE = linkonce_odr hidden global %class.LogTagSet zeroinitializer, comdat, align 8

; Function Attrs: mustprogress nounwind uwtable
define linkonce_odr hidden noundef zeroext i1 @_ZNK13LogOutputList8is_levelEN8LogLevel4typeE(ptr noundef nonnull align 8 dereferenceable(52) %0, i32 noundef %1) #1 comdat align 2 {
  %3 = alloca ptr, align 8
  %4 = alloca i32, align 4
  store ptr %0, ptr %3, align 8
  store i32 %1, ptr %4, align 4
  %5 = load ptr, ptr %3, align 8
  %6 = getelementptr inbounds %class.LogOutputList, ptr %5, i32 0, i32 0
  %7 = load i32, ptr %4, align 4
  %8 = zext i32 %7 to i64
  %9 = getelementptr inbounds [6 x ptr], ptr %6, i64 0, i64 %8
  %10 = load volatile ptr, ptr %9, align 8
  %11 = icmp ne ptr %10, null
  ret i1 %11
}

; Function Attrs: mustprogress nounwind uwtable
define linkonce_odr hidden noundef zeroext i1 @_ZNK9LogTagSet8is_levelEN8LogLevel4typeE(ptr noundef nonnull align 8 dereferenceable(112) %0, i32 noundef %1) #1 comdat align 2 {
  %3 = alloca ptr, align 8
  %4 = alloca i32, align 4
  store ptr %0, ptr %3, align 8
  store i32 %1, ptr %4, align 4
  %5 = load ptr, ptr %3, align 8
  %6 = getelementptr inbounds %class.LogTagSet, ptr %5, i32 0, i32 4
  %7 = load i32, ptr %4, align 4
  %8 = call noundef zeroext i1 @_ZNK13LogOutputList8is_levelEN8LogLevel4typeE(ptr noundef nonnull align 8 dereferenceable(52) %6, i32 noundef %7)
  ret i1 %8
}

; Function Attrs: mustprogress nounwind uwtable
define linkonce_odr hidden noundef nonnull align 8 dereferenceable(112) ptr @_ZN16LogTagSetMappingILN6LogTag4typeE76ELS1_0ELS1_0ELS1_0ELS1_0ELS1_0EE6tagsetEv() #1 comdat align 2 {
  ret ptr @_ZN16LogTagSetMappingILN6LogTag4typeE76ELS1_0ELS1_0ELS1_0ELS1_0ELS1_0EE7_tagsetE
}

; Function Attrs: mustprogress nounwind uwtable
define linkonce_odr hidden noundef i64 @_Z10align_downImmTnNSt9enable_ifIXcvbsr3std11is_integralIT_EE5valueEiE4typeELi0EES1_S1_T0_(i64 noundef %0, i64 noundef %1) #1 comdat {
  %3 = alloca i64, align 8
  %4 = alloca i64, align 8
  %5 = alloca i64, align 8
  store i64 %0, ptr %3, align 8
  store i64 %1, ptr %4, align 8
  %6 = load i64, ptr %3, align 8
  %7 = load i64, ptr %4, align 8
  %8 = call noundef i64 @_ZL14alignment_maskImTnNSt9enable_ifIXcvbsr3std11is_integralIT_EE5valueEiE4typeELi0EES1_S1_(i64 noundef %7)
  %9 = xor i64 %8, -1
  %10 = and i64 %6, %9
  store i64 %10, ptr %5, align 8
  %11 = load i64, ptr %5, align 8
  ret i64 %11
}

; Function Attrs: mustprogress nounwind uwtable
define linkonce_odr hidden noundef i64 @_Z12checked_castImmET_T0_(i64 noundef %0) #1 comdat {
  %2 = alloca i64, align 8
  %3 = alloca i64, align 8
  store i64 %0, ptr %2, align 8
  %4 = load i64, ptr %2, align 8
  store i64 %4, ptr %3, align 8
  %5 = load i64, ptr %3, align 8
  ret i64 %5
}

; Function Attrs: mustprogress nounwind uwtable
define internal noundef i64 @_ZL14alignment_maskImTnNSt9enable_ifIXcvbsr3std11is_integralIT_EE5valueEiE4typeELi0EES1_S1_(i64 noundef %0) #1 {
  %2 = alloca i64, align 8
  store i64 %0, ptr %2, align 8
  %3 = load i64, ptr %2, align 8
  %4 = sub i64 %3, 1
  ret i64 %4
}

; Function Attrs: mustprogress nounwind uwtable
define linkonce_odr hidden noundef zeroext i1 @_ZN7LogImplILN6LogTag4typeE76ELS1_0ELS1_0ELS1_0ELS1_0ELS1_0EE8is_levelEN8LogLevel4typeE(i32 noundef %0) #1 comdat align 2 {
  %2 = alloca i32, align 4
  store i32 %0, ptr %2, align 4
  %3 = call noundef nonnull align 8 dereferenceable(112) ptr @_ZN16LogTagSetMappingILN6LogTag4typeE76ELS1_0ELS1_0ELS1_0ELS1_0ELS1_0EE6tagsetEv()
  %4 = load i32, ptr %2, align 4
  %5 = call noundef zeroext i1 @_ZNK9LogTagSet8is_levelEN8LogLevel4typeE(ptr noundef nonnull align 8 dereferenceable(112) %3, i32 noundef %4)
  ret i1 %5
}

; Function Attrs: mustprogress nounwind uwtable
define linkonce_odr hidden noundef i64 @_Z8align_upImmTnNSt9enable_ifIXcvbsr3std11is_integralIT_EE5valueEiE4typeELi0EES1_S1_T0_(i64 noundef %0, i64 noundef %1) #1 comdat {
  %3 = alloca i64, align 8
  %4 = alloca i64, align 8
  %5 = alloca i64, align 8
  store i64 %0, ptr %3, align 8
  store i64 %1, ptr %4, align 8
  %6 = load i64, ptr %3, align 8
  %7 = load i64, ptr %4, align 8
  %8 = call noundef i64 @_ZL14alignment_maskImTnNSt9enable_ifIXcvbsr3std11is_integralIT_EE5valueEiE4typeELi0EES1_S1_(i64 noundef %7)
  %9 = add i64 %6, %8
  %10 = call noundef i64 @_Z12checked_castImmET_T0_(i64 noundef %9)
  store i64 %10, ptr %5, align 8
  %11 = load i64, ptr %5, align 8
  %12 = load i64, ptr %4, align 8
  %13 = call noundef i64 @_Z10align_downImmTnNSt9enable_ifIXcvbsr3std11is_integralIT_EE5valueEiE4typeELi0EES1_S1_T0_(i64 noundef %11, i64 noundef %12)
  ret i64 %13
}

; Function Attrs: mustprogress nounwind uwtable
define hidden noundef zeroext i1 @_ZN17LogStreamImplBase10LineBuffer14try_ensure_capEm(ptr noundef nonnull align 8 dereferenceable(88) %0, i64 noundef %1) #1 align 2 {
  %3 = alloca i1, align 1
  %4 = alloca ptr, align 8
  %5 = alloca i64, align 8
  %6 = alloca i64, align 8
  %7 = alloca i64, align 8
  %8 = alloca i64, align 8
  %9 = alloca ptr, align 8
  store ptr %0, ptr %4, align 8
  store i64 %1, ptr %5, align 8
  %10 = load ptr, ptr %4, align 8
  store i64 1048576, ptr %6, align 8
  %11 = getelementptr inbounds %"class.LogStreamImplBase::LineBuffer", ptr %10, i32 0, i32 2
  %12 = load i64, ptr %11, align 8
  %13 = load i64, ptr %5, align 8
  %14 = icmp uge i64 %12, %13
  br i1 %14, label %15, label %16

15:                                               ; preds = %2
  store i1 true, ptr %3, align 1
  br label %73

16:                                               ; preds = %2
  %17 = getelementptr inbounds %"class.LogStreamImplBase::LineBuffer", ptr %10, i32 0, i32 2
  %18 = load i64, ptr %17, align 8
  %19 = icmp eq i64 %18, 1048576
  br i1 %19, label %20, label %21

20:                                               ; preds = %16
  store i1 false, ptr %3, align 1
  br label %73

21:                                               ; preds = %16
  store i64 256, ptr %7, align 8
  %22 = load i64, ptr %5, align 8
  %23 = add i64 %22, 256
  %24 = call noundef i64 @_Z8align_upImmTnNSt9enable_ifIXcvbsr3std11is_integralIT_EE5valueEiE4typeELi0EES1_S1_T0_(i64 noundef %23, i64 noundef 256)
  store i64 %24, ptr %8, align 8
  %25 = load i64, ptr %8, align 8
  %26 = icmp ugt i64 %25, 1048576
  br i1 %26, label %27, label %38

27:                                               ; preds = %21
  %28 = call noundef zeroext i1 @_ZN7LogImplILN6LogTag4typeE76ELS1_0ELS1_0ELS1_0ELS1_0ELS1_0EE8is_levelEN8LogLevel4typeE(i32 noundef 3)
  br i1 %28, label %30, label %29

29:                                               ; preds = %27
  br label %37

30:                                               ; preds = %27
  %31 = getelementptr inbounds %"class.LogStreamImplBase::LineBuffer", ptr %10, i32 0, i32 1
  %32 = load ptr, ptr %31, align 8
  %33 = getelementptr inbounds %"class.LogStreamImplBase::LineBuffer", ptr %10, i32 0, i32 3
  %34 = load i64, ptr %33, align 8
  %35 = icmp uge i64 %34, 100
  %36 = select i1 %35, ptr @.str.4, ptr @.str.5
  call void (ptr, ...) @_ZN7LogImplILN6LogTag4typeE76ELS1_0ELS1_0ELS1_0ELS1_0ELS1_0EE5writeILN8LogLevel4typeE3EEEvPKcz(ptr noundef @.str, ptr noundef %32, ptr noundef %36)
  br label %37

37:                                               ; preds = %30, %29
  store i64 1048576, ptr %8, align 8
  br label %38

38:                                               ; preds = %37, %21
  %39 = load i64, ptr %8, align 8
  %40 = call noundef ptr @_ZN2os6mallocEm8MEMFLAGS(i64 noundef %39, i8 noundef zeroext 17)
  store ptr %40, ptr %9, align 8
  %41 = load ptr, ptr %9, align 8
  %42 = icmp eq ptr %41, null
  br i1 %42, label %43, label %44

43:                                               ; preds = %38
  store i1 false, ptr %3, align 1
  br label %73

44:                                               ; preds = %38
  %45 = getelementptr inbounds %"class.LogStreamImplBase::LineBuffer", ptr %10, i32 0, i32 3
  %46 = load i64, ptr %45, align 8
  %47 = icmp ugt i64 %46, 0
  br i1 %47, label %48, label %55

48:                                               ; preds = %44
  %49 = load ptr, ptr %9, align 8
  %50 = getelementptr inbounds %"class.LogStreamImplBase::LineBuffer", ptr %10, i32 0, i32 1
  %51 = load ptr, ptr %50, align 8
  %52 = getelementptr inbounds %"class.LogStreamImplBase::LineBuffer", ptr %10, i32 0, i32 3
  %53 = load i64, ptr %52, align 8
  %54 = add i64 %53, 1
  call void @llvm.memcpy.p0.p0.i64(ptr align 1 %49, ptr align 1 %51, i64 %54, i1 false)
  br label %55

55:                                               ; preds = %48, %44
  %56 = getelementptr inbounds %"class.LogStreamImplBase::LineBuffer", ptr %10, i32 0, i32 1
  %57 = load ptr, ptr %56, align 8
  %58 = getelementptr inbounds %"class.LogStreamImplBase::LineBuffer", ptr %10, i32 0, i32 0
  %59 = getelementptr inbounds [64 x i8], ptr %58, i64 0, i64 0
  %60 = icmp ne ptr %57, %59
  br i1 %60, label %61, label %64

61:                                               ; preds = %55
  %62 = getelementptr inbounds %"class.LogStreamImplBase::LineBuffer", ptr %10, i32 0, i32 1
  %63 = load ptr, ptr %62, align 8
  call void @_ZN2os4freeEPv(ptr noundef %63)
  br label %64

64:                                               ; preds = %61, %55
  %65 = load ptr, ptr %9, align 8
  %66 = getelementptr inbounds %"class.LogStreamImplBase::LineBuffer", ptr %10, i32 0, i32 1
  store ptr %65, ptr %66, align 8
  %67 = load i64, ptr %8, align 8
  %68 = getelementptr inbounds %"class.LogStreamImplBase::LineBuffer", ptr %10, i32 0, i32 2
  store i64 %67, ptr %68, align 8
  %69 = getelementptr inbounds %"class.LogStreamImplBase::LineBuffer", ptr %10, i32 0, i32 2
  %70 = load i64, ptr %69, align 8
  %71 = load i64, ptr %5, align 8
  %72 = icmp uge i64 %70, %71
  store i1 %72, ptr %3, align 1
  br label %73

73:                                               ; preds = %64, %43, %20, %15
  %74 = load i1, ptr %3, align 1
  ret i1 %74
}

; Function Attrs: mustprogress nounwind uwtable
define hidden void @_ZN17LogStreamImplBase10LineBuffer6appendEPKcm(ptr noundef nonnull align 8 dereferenceable(88) %0, ptr noundef %1, i64 noundef %2) #1 align 2 {
  %4 = alloca ptr, align 8
  %5 = alloca ptr, align 8
  %6 = alloca i64, align 8
  %7 = alloca i64, align 8
  %8 = alloca i8, align 1
  store ptr %0, ptr %4, align 8
  store ptr %1, ptr %5, align 8
  store i64 %2, ptr %6, align 8
  %9 = load ptr, ptr %4, align 8
  %10 = getelementptr inbounds %"class.LogStreamImplBase::LineBuffer", ptr %9, i32 0, i32 3
  %11 = load i64, ptr %10, align 8
  %12 = load i64, ptr %6, align 8
  %13 = add i64 %11, %12
  %14 = add i64 %13, 1
  store i64 %14, ptr %7, align 8
  %15 = load i64, ptr %7, align 8
  %16 = call noundef zeroext i1 @_ZN17LogStreamImplBase10LineBuffer14try_ensure_capEm(ptr noundef nonnull align 8 dereferenceable(88) %9, i64 noundef %15)
  %17 = zext i1 %16 to i8
  store i8 %17, ptr %8, align 1
  %18 = load i8, ptr %8, align 1
  %19 = trunc i8 %18 to i1
  br i1 %19, label %31, label %20

20:                                               ; preds = %3
  %21 = getelementptr inbounds %"class.LogStreamImplBase::LineBuffer", ptr %9, i32 0, i32 2
  %22 = load i64, ptr %21, align 8
  %23 = getelementptr inbounds %"class.LogStreamImplBase::LineBuffer", ptr %9, i32 0, i32 3
  %24 = load i64, ptr %23, align 8
  %25 = sub i64 %22, %24
  %26 = sub i64 %25, 1
  store i64 %26, ptr %6, align 8
  %27 = load i64, ptr %6, align 8
  %28 = icmp eq i64 %27, 0
  br i1 %28, label %29, label %30

29:                                               ; preds = %20
  br label %48

30:                                               ; preds = %20
  br label %31

31:                                               ; preds = %30, %3
  %32 = getelementptr inbounds %"class.LogStreamImplBase::LineBuffer", ptr %9, i32 0, i32 1
  %33 = load ptr, ptr %32, align 8
  %34 = getelementptr inbounds %"class.LogStreamImplBase::LineBuffer", ptr %9, i32 0, i32 3
  %35 = load i64, ptr %34, align 8
  %36 = getelementptr inbounds i8, ptr %33, i64 %35
  %37 = load ptr, ptr %5, align 8
  %38 = load i64, ptr %6, align 8
  call void @llvm.memcpy.p0.p0.i64(ptr align 1 %36, ptr align 1 %37, i64 %38, i1 false)
  %39 = load i64, ptr %6, align 8
  %40 = getelementptr inbounds %"class.LogStreamImplBase::LineBuffer", ptr %9, i32 0, i32 3
  %41 = load i64, ptr %40, align 8
  %42 = add i64 %41, %39
  store i64 %42, ptr %40, align 8
  %43 = getelementptr inbounds %"class.LogStreamImplBase::LineBuffer", ptr %9, i32 0, i32 1
  %44 = load ptr, ptr %43, align 8
  %45 = getelementptr inbounds %"class.LogStreamImplBase::LineBuffer", ptr %9, i32 0, i32 3
  %46 = load i64, ptr %45, align 8
  %47 = getelementptr inbounds i8, ptr %44, i64 %46
  store i8 0, ptr %47, align 1
  br label %48

48:                                               ; preds = %31, %29
  ret void
}