; Function Attrs: mustprogress nounwind uwtable
define hidden void @_ZN17LogStreamImplBase10LineBuffer6appendEPKcm(ptr noundef nonnull align 8 dereferenceable(88) %0, ptr nocapture noundef readonly %1, i64 noundef %2) local_unnamed_addr #1 align 2 {
  %4 = getelementptr inbounds i8, ptr %0, i64 80
  %5 = load i64, ptr %4, align 8
  %6 = add i64 %5, %2
  %7 = add i64 %6, 1
  %8 = getelementptr inbounds i8, ptr %0, i64 72
  %9 = load i64, ptr %8, align 8
  %.not.i = icmp ult i64 %9, %7
  br i1 %.not.i, label %10, label %_ZN17LogStreamImplBase10LineBuffer14try_ensure_capEm.exit.thread9

10:                                               ; preds = %3
  %11 = icmp eq i64 %9, 1048576
  br i1 %11, label %_ZN17LogStreamImplBase10LineBuffer14try_ensure_capEm.exit.thread, label %12

12:                                               ; preds = %10
  %13 = and i64 %6, -256
  %14 = add i64 %13, 512
  %15 = icmp ugt i64 %14, 1048576
  br i1 %15, label %16, label %23

16:                                               ; preds = %12
  %17 = load volatile ptr, ptr getelementptr inbounds (i8, ptr @_ZN16LogTagSetMappingILN6LogTag4typeE76ELS1_0ELS1_0ELS1_0ELS1_0ELS1_0EE7_tagsetE, i64 64), align 8
  %.not19.i = icmp eq ptr %17, null
  br i1 %.not19.i, label %23, label %18

18:                                               ; preds = %16
  %19 = getelementptr inbounds i8, ptr %0, i64 64
  %20 = load ptr, ptr %19, align 8
  %21 = icmp ugt i64 %5, 99
  %22 = select i1 %21, ptr @.str.4, ptr @.str.5
  tail call void (ptr, ...) @_ZN7LogImplILN6LogTag4typeE76ELS1_0ELS1_0ELS1_0ELS1_0ELS1_0EE5writeILN8LogLevel4typeE3EEEvPKcz(ptr noundef nonnull @.str, ptr noundef %20, ptr noundef nonnull %22)
  br label %23

23:                                               ; preds = %18, %16, %12
  %.010.i = phi i64 [ %14, %12 ], [ 1048576, %16 ], [ 1048576, %18 ]
  %24 = tail call noundef ptr @_ZN2os6mallocEm8MEMFLAGS(i64 noundef %.010.i, i8 noundef zeroext 17) #8
  %25 = icmp eq ptr %24, null
  br i1 %25, label %._ZN17LogStreamImplBase10LineBuffer14try_ensure_capEm.exit.thread_crit_edge, label %26

._ZN17LogStreamImplBase10LineBuffer14try_ensure_capEm.exit.thread_crit_edge: ; preds = %23
  %.pre = load i64, ptr %8, align 8
  %.pre12 = load i64, ptr %4, align 8
  br label %_ZN17LogStreamImplBase10LineBuffer14try_ensure_capEm.exit.thread

26:                                               ; preds = %23
  %27 = load i64, ptr %4, align 8
  %.not17.i = icmp eq i64 %27, 0
  br i1 %.not17.i, label %32, label %28

28:                                               ; preds = %26
  %29 = getelementptr inbounds i8, ptr %0, i64 64
  %30 = load ptr, ptr %29, align 8
  %31 = add i64 %27, 1
  tail call void @llvm.memcpy.p0.p0.i64(ptr nonnull align 1 %24, ptr align 1 %30, i64 %31, i1 false)
  br label %32

32:                                               ; preds = %28, %26
  %33 = getelementptr inbounds i8, ptr %0, i64 64
  %34 = load ptr, ptr %33, align 8
  %.not18.i = icmp eq ptr %34, %0
  br i1 %.not18.i, label %_ZN17LogStreamImplBase10LineBuffer14try_ensure_capEm.exit, label %35

35:                                               ; preds = %32
  tail call void @_ZN2os4freeEPv(ptr noundef %34) #8
  br label %_ZN17LogStreamImplBase10LineBuffer14try_ensure_capEm.exit

_ZN17LogStreamImplBase10LineBuffer14try_ensure_capEm.exit: ; preds = %32, %35
  store ptr %24, ptr %33, align 8
  store i64 %.010.i, ptr %8, align 8
  %.not = icmp ult i64 %.010.i, %7
  %.pre13 = load i64, ptr %4, align 8
  br i1 %.not, label %_ZN17LogStreamImplBase10LineBuffer14try_ensure_capEm.exit.thread, label %_ZN17LogStreamImplBase10LineBuffer14try_ensure_capEm.exit.thread9

_ZN17LogStreamImplBase10LineBuffer14try_ensure_capEm.exit.thread: ; preds = %._ZN17LogStreamImplBase10LineBuffer14try_ensure_capEm.exit.thread_crit_edge, %10, %_ZN17LogStreamImplBase10LineBuffer14try_ensure_capEm.exit
  %36 = phi i64 [ %.pre12, %._ZN17LogStreamImplBase10LineBuffer14try_ensure_capEm.exit.thread_crit_edge ], [ %5, %10 ], [ %.pre13, %_ZN17LogStreamImplBase10LineBuffer14try_ensure_capEm.exit ]
  %37 = phi i64 [ %.pre, %._ZN17LogStreamImplBase10LineBuffer14try_ensure_capEm.exit.thread_crit_edge ], [ 1048576, %10 ], [ %.010.i, %_ZN17LogStreamImplBase10LineBuffer14try_ensure_capEm.exit ]
  %38 = xor i64 %36, -1
  %39 = add i64 %37, %38
  %40 = icmp eq i64 %39, 0
  br i1 %40, label %49, label %_ZN17LogStreamImplBase10LineBuffer14try_ensure_capEm.exit.thread9

_ZN17LogStreamImplBase10LineBuffer14try_ensure_capEm.exit.thread9: ; preds = %_ZN17LogStreamImplBase10LineBuffer14try_ensure_capEm.exit, %3, %_ZN17LogStreamImplBase10LineBuffer14try_ensure_capEm.exit.thread
  %41 = phi i64 [ %36, %_ZN17LogStreamImplBase10LineBuffer14try_ensure_capEm.exit.thread ], [ %5, %3 ], [ %.pre13, %_ZN17LogStreamImplBase10LineBuffer14try_ensure_capEm.exit ]
  %.0 = phi i64 [ %39, %_ZN17LogStreamImplBase10LineBuffer14try_ensure_capEm.exit.thread ], [ %2, %3 ], [ %2, %_ZN17LogStreamImplBase10LineBuffer14try_ensure_capEm.exit ]
  %42 = getelementptr inbounds i8, ptr %0, i64 64
  %43 = load ptr, ptr %42, align 8
  %44 = getelementptr inbounds i8, ptr %43, i64 %41
  tail call void @llvm.memcpy.p0.p0.i64(ptr align 1 %44, ptr align 1 %1, i64 %.0, i1 false)
  %45 = load i64, ptr %4, align 8
  %46 = add i64 %45, %.0
  store i64 %46, ptr %4, align 8
  %47 = load ptr, ptr %42, align 8
  %48 = getelementptr inbounds i8, ptr %47, i64 %46
  store i8 0, ptr %48, align 1
  br label %49

49:                                               ; preds = %_ZN17LogStreamImplBase10LineBuffer14try_ensure_capEm.exit.thread, %_ZN17LogStreamImplBase10LineBuffer14try_ensure_capEm.exit.thread9
  ret void
}